(dp0
S'slope'
p1
F0.01
sS'stop_tol'
p2
F0.01
sS'Dveg'
p3
F0.008
sS'ifricV'
p4
I1
sS'zmax'
p5
F20.0
sS'runmodel'
p6
I1
sS'pveg'
p7
F0.3
sS'zmin'
p8
F0.0
sS'iscale'
p9
I100
sS'hinit'
p10
I-100
sS'rain'
p11
F9.999999999999999e-06
sS'ksatB'
p12
F5.555555555555556e-05
sS'dt_sw'
p13
F0.05
sS'beta'
p14
F1.0
sS'seed'
p15
I5
sS'ncol'
p16
I15
sS'htop'
p17
I0
sS'dx'
p18
F1.0
sS'ifricB'
p19
I1
sS'infL'
p20
I2
sS'ksatV'
p21
F0.0008333333333333334
sS'ponding'
p22
I1
sS'append'
p23
S''
p24
sS'zs'
p25
I20
sS'logscale'
p26
I10
sS'epsh'
p27
F0.0002
sS'nrow'
p28
I50
sS'xnv'
p29
F0.09
sS'tmax'
p30
F3600.0
sS'level'
p31
S'B2_plane_randv_Sf'
p32
sS'tr'
p33
F1200.0
sS'itype4'
p34
I1
sS'depth'
p35
F0.0
sS'itype1'
p36
I0
sS'itype3'
p37
I1
sS'itype2'
p38
I1
sS'xni'
p39
F0.02
sS'dz'
p40
F0.4
sS'iscouple'
p41
I0
s.